issuer :/C=PT/L=Lisboa/O=Neuronio, Lda./OU=Desenvolvimento/CN=brutus.neuronio.pt/Email=sampo@iki.fi
subject:/C=pt/L=Lisboa/O=Neuronio, Lda./OU=Sampo's key factory/CN=brutus.neuronio.pt/Email=sampo@neuronio.pt
serial :02

Certificate:
    Data:
        Version: 2 (0x2)
        Serial Number: 2 (0x2)
        Signature Algorithm: md5
        Issuer: C=PT, L=Lisboa, O=Neuronio, Lda., OU=Desenvolvimento, CN=brutus.neuronio.pt, Email=sampo@iki.fi
        Validity
            Not Before: Jun 29 04:58:29 1996 GMT
            Not After : Jun 29 04:58:29 1997 GMT
        Subject: C=pt, L=Lisboa, O=Neuronio, Lda., OU=Sampo's key factory, CN=brutus.neuronio.pt, Email=sampo@neuronio.pt
        Subject Public Key Info:
            Public Key Algorithm: rsaEncryption
                Modulus:
                    00:b9:26:12:c6:90:1d:c8:ec:3d:a7:46:08:ae:07:
                    77:bf:16:84:b4:3d:cf:01:3a:64:c1:d8:7b:1a:d8:
                    7d:c6:64:d5:aa:22:c4:c2:b3:57:85:72:a5:14:a1:
                    63:2e:bd:fa:44:2f:69:5a:ea:1d:ed:88:21:9b:54:
                    c4:8a:81:50:be:5c:b0:74:49:8c:6e:7f:48:9d:df:
                    4a:aa:cf:01:b4:ea:ea:58:4c:29:88:aa:1e:f5:08:
                    f3:2e:7a:62:29:7b:37:61:1f:e4:cb:d1:02:7b:2f:
                    ea:8b:da:45:65:8e:16:e8:ef:00:3c:d3:fd:e4:58:
                    23:e3:8a:39:dd:c4:28:2f:a7
                Exponent: 65537 (0x10001)
    Signature Algorithm: md5
        79:9b:03:5d:d6:84:93:4c:63:a7:df:14:38:1e:c2:ef:90:b1:
        09:77:51:31:c8:56:9a:55:5b:cc:ca:a2:44:41:db:d5:03:e2:
        cb:35:78:2f:be:c4:5e:18:a1:53:81:29:3a:f0:79:5e:e6:d1:
        54:a3:2a:41:0d:3c:2d:e5:ac:11

-----BEGIN CERTIFICATE-----
MIICZzCCAhKgAwIBAgIBAjAMBggqhkiG9w0CBQUAMIGLMQswCQYDVQQGEwJQVDEP
MA0GA1UEBxMGTGlzYm9hMRcwFQYDVQQKEw5OZXVyb25pbywgTGRhLjEYMBYGA1UE
CxMPRGVzZW52b2x2aW1lbnRvMRswGQYDVQQDExJicnV0dXMubmV1cm9uaW8ucHQx
GzAZBgkqhkiG9w0BCQEWDHNhbXBvQGlraS5maTAeFw05NjA2MjkwNDU4MjlaFw05
NzA2MjkwNDU4MjlaMIGUMQswCQYDVQQGEwJwdDEPMA0GA1UEBxMGTGlzYm9hMRcw
FQYDVQQKEw5OZXVyb25pbywgTGRhLjEcMBoGA1UECxMTU2FtcG8ncyBrZXkgZmFj
dG9yeTEbMBkGA1UEAxMSYnJ1dHVzLm5ldXJvbmlvLnB0MSAwHgYJKoZIhvcNAQkB
FhFzYW1wb0BuZXVyb25pby5wdDCBnzANBgkqhkiG9w0BAQEFAAOBjQAwgYkCgYEA
uSYSxpAdyOw9p0YIrgd3vxaEtD3PATpkwdh7Gth9xmTVqiLEwrNXhXKlFKFjLr36
RC9pWuod7Yghm1TEioFQvlywdEmMbn9Ind9Kqs8BtOrqWEwpiKoe9QjzLnpiKXs3
YR/ky9ECey/qi9pFZY4W6O8APNP95Fgj44o53cQoL6cCAwEAAaMTMBEGCSqGSIb3
DQEJBxMEMTIzNDAMBggqhkiG9w0CBQUAA0EAeZsDXdaEk0xjp98UOB7C75CxCXdR
MchWmlVbzMqiREHb1QPiyzV4L77EXhihU4EpOvB5XubRVKMqQQ08LeWsEQ==
-----END CERTIFICATE-----

